; Function Attrs: mustprogress uwtable
define internal void @_ZN12_GLOBAL__N_136PoolURBGTypedTest_URBGInterface_TestIN4absl15random_internal10RandenPoolItEEE8TestBodyEv(ptr nocapture nonnull readnone align 8 %this) unnamed_addr #3 align 2 {
entry:
  %e = alloca %"class.absl::random_internal::RandenPool.9", align 1
  %x = alloca %"class.absl::random_internal::RandenPool.9", align 1
  %u0 = alloca %"class.absl::random_internal::RandenPool.9", align 1
  %u1 = alloca %"class.absl::random_internal::RandenPool.9", align 1
  call void @_ZN4absl15random_internal10RandenPoolItEC1Ev(ptr noundef nonnull align 1 dereferenceable(1) %e)
  call void @_ZN4absl15random_internal10RandenPoolItEC1Ev(ptr noundef nonnull align 1 dereferenceable(1) %x)
  %call = call noundef zeroext i16 @_ZN4absl15random_internal10RandenPoolItEclEv(ptr noundef nonnull align 1 dereferenceable(1) %e)
  %call2 = call noundef zeroext i16 @_ZN4absl15random_internal10RandenPoolItEclEv(ptr noundef nonnull align 1 dereferenceable(1) %u0)
  %call3 = call noundef zeroext i16 @_ZN4absl15random_internal10RandenPoolItEclEv(ptr noundef nonnull align 1 dereferenceable(1) %u1)
  ret void
}